target datalayout = "e-m:e-p270:32:32-p271:32:32-p272:64:64-i64:64-i128:128-f80:128-n8:16:32:64-S128"
target triple = "x86_64-pc-linux-gnu"

%"class.icu_77::UObject" = type { ptr }
%"class.icu_77::internal::LocalOpenPointer" = type { %"class.icu_77::LocalPointerBase.1" }
%"class.icu_77::LocalPointerBase.1" = type { ptr }
%"class.icu_77::ResourceSink" = type { %"class.icu_77::UObject" }
%"struct.icu_77::(anonymous namespace)::AllowedHourFormatsSink" = type { %"class.icu_77::ResourceSink" }

@_ZN6icu_7712_GLOBAL__N_129localeToAllowedHourFormatsMapE = internal global ptr null, align 8
@.str = private unnamed_addr constant [17 x i8] c"supplementalData\00", align 1
@.str.1 = private unnamed_addr constant [9 x i8] c"timeData\00", align 1
@_ZTVN6icu_777UObjectE = available_externally unnamed_addr constant { [5 x ptr] } { [5 x ptr] [ptr null, ptr @_ZTIN6icu_777UObjectE, ptr @_ZN6icu_777UObjectD1Ev, ptr @_ZN6icu_777UObjectD0Ev, ptr @_ZNK6icu_777UObject17getDynamicClassIDEv] }, align 8
@_ZTVN6icu_7712ResourceSinkE = available_externally unnamed_addr constant { [6 x ptr] } { [6 x ptr] [ptr null, ptr @_ZTIN6icu_7712ResourceSinkE, ptr @_ZN6icu_7712ResourceSinkD1Ev, ptr @_ZN6icu_7712ResourceSinkD0Ev, ptr @_ZNK6icu_777UObject17getDynamicClassIDEv, ptr @__cxa_pure_virtual] }, align 8

; Function Attrs: inlinehint mustprogress nounwind uwtable
define linkonce_odr void @_ZN6icu_777UObjectC2Ev(ptr noundef nonnull align 8 dereferenceable(8) %0) unnamed_addr #2 comdat align 2 {
  %2 = alloca ptr, align 8
  store ptr %0, ptr %2, align 8, !tbaa !58
  %3 = load ptr, ptr %2, align 8
  store ptr getelementptr inbounds inrange(-16, 24) ({ [5 x ptr] }, ptr @_ZTVN6icu_777UObjectE, i32 0, i32 0, i32 2), ptr %3, align 8, !tbaa !37
  ret void
}

; Function Attrs: mustprogress nounwind uwtable
define linkonce_odr void @_ZN6icu_7712ResourceSinkC2Ev(ptr noundef nonnull align 8 dereferenceable(8) %0) unnamed_addr #0 comdat align 2 {
  %2 = alloca ptr, align 8
  store ptr %0, ptr %2, align 8, !tbaa !323
  %3 = load ptr, ptr %2, align 8
  call void @_ZN6icu_777UObjectC2Ev(ptr noundef nonnull align 8 dereferenceable(8) %3) #13
  store ptr getelementptr inbounds inrange(-16, 32) ({ [6 x ptr] }, ptr @_ZTVN6icu_7712ResourceSinkE, i32 0, i32 0, i32 2), ptr %3, align 8, !tbaa !37
  ret void
}

; Function Attrs: mustprogress nounwind uwtable
define linkonce_odr void @_ZN6icu_7716LocalPointerBaseI15UResourceBundleEC2EPS1_(ptr noundef nonnull align 8 dereferenceable(8) %0, ptr noundef %1) unnamed_addr #0 comdat align 2 {
  %3 = alloca ptr, align 8
  %4 = alloca ptr, align 8
  store ptr %0, ptr %3, align 8, !tbaa !125
  store ptr %1, ptr %4, align 8, !tbaa !121
  %5 = load ptr, ptr %3, align 8
  %6 = getelementptr inbounds nuw %"class.icu_77::LocalPointerBase.1", ptr %5, i32 0, i32 0
  %7 = load ptr, ptr %4, align 8, !tbaa !121
  store ptr %7, ptr %6, align 8, !tbaa !127
  ret void
}

; Function Attrs: mustprogress nounwind uwtable
define linkonce_odr noundef ptr @_ZNK6icu_7716LocalPointerBaseI15UResourceBundleE8getAliasEv(ptr noundef nonnull align 8 dereferenceable(8) %0) #0 comdat align 2 {
  %2 = alloca ptr, align 8
  store ptr %0, ptr %2, align 8, !tbaa !125
  %3 = load ptr, ptr %2, align 8
  %4 = getelementptr inbounds nuw %"class.icu_77::LocalPointerBase.1", ptr %3, i32 0, i32 0
  %5 = load ptr, ptr %4, align 8, !tbaa !127
  ret ptr %5
}

; Function Attrs: mustprogress uwtable
define internal void @_ZN6icu_7712_GLOBAL__N_122AllowedHourFormatsSinkC2Ev(ptr noundef nonnull align 8 dereferenceable(8) %0) unnamed_addr #1 align 2 {
  %2 = alloca ptr, align 8
  store ptr %0, ptr %2, align 8, !tbaa !123
  %3 = load ptr, ptr %2, align 8
  call void @_ZN6icu_7712ResourceSinkC2Ev(ptr noundef nonnull align 8 dereferenceable(8) %3)
  store ptr getelementptr inbounds inrange(-16, 32) ({ [6 x ptr] }, ptr @_ZTVN6icu_7712_GLOBAL__N_122AllowedHourFormatsSinkE, i32 0, i32 0, i32 2), ptr %3, align 8, !tbaa !37
  ret void
}

; Function Attrs: mustprogress uwtable
define linkonce_odr void @_ZN6icu_778internal16LocalOpenPointerI15UResourceBundleXadL_Z13ures_close_77EEEC2EPS2_(ptr noundef nonnull align 8 dereferenceable(8) %0, ptr noundef %1) unnamed_addr #1 comdat align 2 {
  %3 = alloca ptr, align 8
  %4 = alloca ptr, align 8
  store ptr %0, ptr %3, align 8, !tbaa !119
  store ptr %1, ptr %4, align 8, !tbaa !121
  %5 = load ptr, ptr %3, align 8
  %6 = load ptr, ptr %4, align 8, !tbaa !121
  call void @_ZN6icu_7716LocalPointerBaseI15UResourceBundleEC2EPS1_(ptr noundef nonnull align 8 dereferenceable(8) %5, ptr noundef %6)
  ret void
}

; Function Attrs: inlinehint mustprogress nounwind uwtable
define internal noundef signext i8 @_ZL9U_FAILURE10UErrorCode(i32 noundef %0) #2 {
  %2 = alloca i32, align 4
  store i32 %0, ptr %2, align 4, !tbaa !15
  %3 = load i32, ptr %2, align 4, !tbaa !15
  %4 = icmp sgt i32 %3, 0
  %5 = zext i1 %4 to i8
  ret i8 %5
}

; Function Attrs: mustprogress uwtable
define void @_ZN6icu_7724DateTimePatternGenerator26loadAllowedHourFormatsDataER10UErrorCode(ptr noundef nonnull align 4 dereferenceable(4) %0) #1 align 2 personality ptr @__gxx_personality_v0 {
  %2 = alloca ptr, align 8
  %3 = alloca %"class.icu_77::internal::LocalOpenPointer", align 8
  %4 = alloca ptr, align 8
  %5 = alloca i32, align 4
  %6 = alloca i32, align 4
  %7 = alloca %"struct.icu_77::(anonymous namespace)::AllowedHourFormatsSink", align 8
  store ptr %0, ptr %2, align 8, !tbaa !22
  %8 = load ptr, ptr %2, align 8, !tbaa !22
  %9 = load i32, ptr %8, align 4, !tbaa !15
  %10 = call noundef signext i8 @_ZL9U_FAILURE10UErrorCode(i32 noundef %9)
  %11 = icmp ne i8 %10, 0
  br i1 %11, label %12, label %13

12:                                               ; preds = %1
  br label %44

13:                                               ; preds = %1
  %14 = load ptr, ptr %2, align 8, !tbaa !22
  %15 = call ptr @uhash_open_77(ptr noundef @uhash_hashChars_77, ptr noundef @uhash_compareChars_77, ptr noundef null, ptr noundef %14)
  store ptr %15, ptr @_ZN6icu_7712_GLOBAL__N_129localeToAllowedHourFormatsMapE, align 8, !tbaa !102
  %16 = load ptr, ptr %2, align 8, !tbaa !22
  %17 = load i32, ptr %16, align 4, !tbaa !15
  %18 = call noundef signext i8 @_ZL9U_FAILURE10UErrorCode(i32 noundef %17)
  %19 = icmp ne i8 %18, 0
  br i1 %19, label %20, label %21

20:                                               ; preds = %13
  br label %44

21:                                               ; preds = %13
  %22 = load ptr, ptr @_ZN6icu_7712_GLOBAL__N_129localeToAllowedHourFormatsMapE, align 8, !tbaa !102
  %23 = call ptr @uhash_setValueDeleter_77(ptr noundef %22, ptr noundef @deleteAllowedHourFormats_77)
  call void @ucln_i18n_registerCleanup_77(i32 noundef 24, ptr noundef @allowedHourFormatsCleanup_77)
  call void @llvm.lifetime.start.p0(i64 8, ptr %3) #13
  %24 = load ptr, ptr %2, align 8, !tbaa !22
  %25 = call ptr @ures_openDirect_77(ptr noundef null, ptr noundef @.str, ptr noundef %24)
  call void @_ZN6icu_778internal16LocalOpenPointerI15UResourceBundleXadL_Z13ures_close_77EEEC2EPS2_(ptr noundef nonnull align 8 dereferenceable(8) %3, ptr noundef %25)
  %26 = load ptr, ptr %2, align 8, !tbaa !22
  %27 = load i32, ptr %26, align 4, !tbaa !15
  %28 = invoke noundef signext i8 @_ZL9U_FAILURE10UErrorCode(i32 noundef %27)
          to label %29 unwind label %32

29:                                               ; preds = %21
  %30 = icmp ne i8 %28, 0
  br i1 %30, label %31, label %36

31:                                               ; preds = %29
  store i32 1, ptr %6, align 4
  br label %42

32:                                               ; preds = %21
  %33 = landingpad { ptr, i32 }
          cleanup
  %34 = extractvalue { ptr, i32 } %33, 0
  store ptr %34, ptr %4, align 8
  %35 = extractvalue { ptr, i32 } %33, 1
  store i32 %35, ptr %5, align 4
  br label %54

36:                                               ; preds = %29
  call void @llvm.lifetime.start.p0(i64 8, ptr %7) #13
  invoke void @_ZN6icu_7712_GLOBAL__N_122AllowedHourFormatsSinkC2Ev(ptr noundef nonnull align 8 dereferenceable(8) %7)
          to label %37 unwind label %45

37:                                               ; preds = %36
  %38 = invoke noundef ptr @_ZNK6icu_7716LocalPointerBaseI15UResourceBundleE8getAliasEv(ptr noundef nonnull align 8 dereferenceable(8) %3)
          to label %39 unwind label %49

39:                                               ; preds = %37
  %40 = load ptr, ptr %2, align 8, !tbaa !22
  invoke void @ures_getAllItemsWithFallback_77(ptr noundef %38, ptr noundef @.str.1, ptr noundef nonnull align 8 dereferenceable(8) %7, ptr noundef nonnull align 4 dereferenceable(4) %40)
          to label %41 unwind label %49

41:                                               ; preds = %39
  call void @_ZN6icu_7712ResourceSinkD2Ev(ptr noundef nonnull align 8 dereferenceable(8) %7) #13
  call void @llvm.lifetime.end.p0(i64 8, ptr %7) #13
  store i32 0, ptr %6, align 4
  br label %42

42:                                               ; preds = %41, %31
  call void @_ZN6icu_778internal16LocalOpenPointerI15UResourceBundleXadL_Z13ures_close_77EEED2Ev(ptr noundef nonnull align 8 dereferenceable(8) %3) #13
  call void @llvm.lifetime.end.p0(i64 8, ptr %3) #13
  %43 = load i32, ptr %6, align 4
  switch i32 %43, label %60 [
    i32 0, label %44
    i32 1, label %44
  ]

44:                                               ; preds = %12, %20, %42, %42
  ret void

45:                                               ; preds = %36
  %46 = landingpad { ptr, i32 }
          cleanup
  %47 = extractvalue { ptr, i32 } %46, 0
  store ptr %47, ptr %4, align 8
  %48 = extractvalue { ptr, i32 } %46, 1
  store i32 %48, ptr %5, align 4
  br label %53

49:                                               ; preds = %39, %37
  %50 = landingpad { ptr, i32 }
          cleanup
  %51 = extractvalue { ptr, i32 } %50, 0
  store ptr %51, ptr %4, align 8
  %52 = extractvalue { ptr, i32 } %50, 1
  store i32 %52, ptr %5, align 4
  call void @_ZN6icu_7712ResourceSinkD2Ev(ptr noundef nonnull align 8 dereferenceable(8) %7) #13
  br label %53

53:                                               ; preds = %49, %45
  call void @llvm.lifetime.end.p0(i64 8, ptr %7) #13
  br label %54

54:                                               ; preds = %53, %32
  call void @_ZN6icu_778internal16LocalOpenPointerI15UResourceBundleXadL_Z13ures_close_77EEED2Ev(ptr noundef nonnull align 8 dereferenceable(8) %3) #13
  call void @llvm.lifetime.end.p0(i64 8, ptr %3) #13
  br label %55

55:                                               ; preds = %54
  %56 = load ptr, ptr %4, align 8
  %57 = load i32, ptr %5, align 4
  %58 = insertvalue { ptr, i32 } poison, ptr %56, 0
  %59 = insertvalue { ptr, i32 } %58, i32 %57, 1
  resume { ptr, i32 } %59

60:                                               ; preds = %42
  unreachable
}