; Function Attrs: mustprogress uwtable
define void @_ZN6icu_7724DateTimePatternGenerator26loadAllowedHourFormatsDataER10UErrorCode(ptr noundef nonnull align 4 dereferenceable(4) %0) local_unnamed_addr #1 align 2 personality ptr @__gxx_personality_v0 {
  %2 = alloca %"class.icu_77::internal::LocalOpenPointer", align 8
  %3 = alloca %"struct.icu_77::(anonymous namespace)::AllowedHourFormatsSink", align 8
  %4 = load i32, ptr %0, align 4, !tbaa !13
  %5 = icmp slt i32 %4, 1
  br i1 %5, label %6, label %22

6:                                                ; preds = %1
  %7 = tail call ptr @uhash_open_77(ptr noundef nonnull @uhash_hashChars_77, ptr noundef nonnull @uhash_compareChars_77, ptr noundef null, ptr noundef nonnull %0)
  store ptr %7, ptr @_ZN6icu_7712_GLOBAL__N_129localeToAllowedHourFormatsMapE, align 8, !tbaa !78
  %8 = load i32, ptr %0, align 4, !tbaa !13
  %9 = icmp slt i32 %8, 1
  br i1 %9, label %10, label %22

10:                                               ; preds = %6
  %11 = tail call ptr @uhash_setValueDeleter_77(ptr noundef %7, ptr noundef nonnull @deleteAllowedHourFormats_77)
  tail call void @ucln_i18n_registerCleanup_77(i32 noundef 24, ptr noundef nonnull @allowedHourFormatsCleanup_77)
  call void @llvm.lifetime.start.p0(i64 8, ptr nonnull %2) #35
  %12 = tail call ptr @ures_openDirect_77(ptr noundef null, ptr noundef nonnull @.str, ptr noundef nonnull %0)
  store ptr %12, ptr %2, align 8, !tbaa !81
  %13 = load i32, ptr %0, align 4, !tbaa !13
  %14 = icmp slt i32 %13, 1
  br i1 %14, label %15, label %17

15:                                               ; preds = %10
  call void @llvm.lifetime.start.p0(i64 8, ptr nonnull %3) #35
  store ptr getelementptr inbounds nuw inrange(-16, 32) (i8, ptr @_ZTVN6icu_7712_GLOBAL__N_122AllowedHourFormatsSinkE, i64 16), ptr %3, align 8, !tbaa !15
  invoke void @ures_getAllItemsWithFallback_77(ptr noundef %12, ptr noundef nonnull @.str.1, ptr noundef nonnull align 8 dereferenceable(8) %3, ptr noundef nonnull align 4 dereferenceable(4) %0)
          to label %16 unwind label %23

16:                                               ; preds = %15
  call void @_ZN6icu_7712ResourceSinkD2Ev(ptr noundef nonnull align 8 dereferenceable(8) %3) #35
  call void @llvm.lifetime.end.p0(i64 8, ptr nonnull %3) #35
  br label %17

17:                                               ; preds = %10, %16
  %.not.i = icmp eq ptr %12, null
  br i1 %.not.i, label %_ZN6icu_778internal16LocalOpenPointerI15UResourceBundleXadL_Z13ures_close_77EEED2Ev.exit, label %18

18:                                               ; preds = %17
  invoke void @ures_close_77(ptr noundef nonnull %12)
          to label %_ZN6icu_778internal16LocalOpenPointerI15UResourceBundleXadL_Z13ures_close_77EEED2Ev.exit unwind label %19

19:                                               ; preds = %18
  %20 = landingpad { ptr, i32 }
          catch ptr null
  %21 = extractvalue { ptr, i32 } %20, 0
  call void @__clang_call_terminate(ptr %21) #37
  unreachable

_ZN6icu_778internal16LocalOpenPointerI15UResourceBundleXadL_Z13ures_close_77EEED2Ev.exit: ; preds = %17, %18
  call void @llvm.lifetime.end.p0(i64 8, ptr nonnull %2) #35
  br label %22

22:                                               ; preds = %6, %1, %_ZN6icu_778internal16LocalOpenPointerI15UResourceBundleXadL_Z13ures_close_77EEED2Ev.exit
  ret void

23:                                               ; preds = %15
  %24 = landingpad { ptr, i32 }
          cleanup
  call void @_ZN6icu_7712ResourceSinkD2Ev(ptr noundef nonnull align 8 dereferenceable(8) %3) #35
  call void @llvm.lifetime.end.p0(i64 8, ptr nonnull %3) #35
  call void @_ZN6icu_778internal16LocalOpenPointerI15UResourceBundleXadL_Z13ures_close_77EEED2Ev(ptr noundef nonnull align 8 dereferenceable(8) %2) #35
  call void @llvm.lifetime.end.p0(i64 8, ptr nonnull %2) #35
  resume { ptr, i32 } %24
}